; Function Attrs: mustprogress uwtable
define dso_local ptr @_ZN4absl13time_internal12LoadTimeZoneERKNSt7__cxx1112basic_stringIcSt11char_traitsIcESaIcEEE(ptr noundef nonnull readonly align 8 captures(none) dereferenceable(32) %0) local_unnamed_addr #0 {
  %2 = alloca %"class.absl::TimeZone", align 8
  store ptr null, ptr %2, align 8, !tbaa !4
  %3 = load ptr, ptr %0, align 8, !tbaa !10
  %4 = getelementptr inbounds nuw i8, ptr %0, i64 8
  %5 = load i64, ptr %4, align 8, !tbaa !15
  %6 = call noundef zeroext i1 @_ZN4absl12LoadTimeZoneESt17basic_string_viewIcSt11char_traitsIcEEPNS_8TimeZoneE(i64 %5, ptr %3, ptr noundef nonnull %2)
  br i1 %6, label %9, label %7, !prof !16

7:                                                ; preds = %1
  %8 = load ptr, ptr %0, align 8, !tbaa !10
  call void (i32, ptr, i32, ptr, ...) @_ZN4absl16raw_log_internal6RawLogENS_11LogSeverityEPKciS3_z(i32 noundef 3, ptr noundef nonnull getelementptr inbounds nuw (i8, ptr @.str, i64 118), i32 noundef 26, ptr noundef nonnull @.str.1, ptr noundef nonnull @.str.2, ptr noundef %8)
  unreachable

9:                                                ; preds = %1
  %10 = load ptr, ptr %2, align 8
  ret ptr %10
}